target datalayout = "e-m:e-p270:32:32-p271:32:32-p272:64:64-i64:64-i128:128-f80:128-n8:16:32:64-S128"
target triple = "x86_64-pc-linux-gnu"

%"class.cmsys::CommandLineArguments" = type <{ ptr, %"class.std::__cxx11::basic_string", i32, i8, [3 x i8] }>
%"class.std::__cxx11::basic_string" = type { %"struct.std::__cxx11::basic_string<char>::_Alloc_hider", i64, %union.anon }
%"struct.std::__cxx11::basic_string<char>::_Alloc_hider" = type { ptr }
%union.anon = type { i64, [8 x i8] }
%"class.cmsys::CommandLineArgumentsInternal" = type { %"class.cmsys::CommandLineArgumentsVectorOfStrings", %"class.std::__cxx11::basic_string", %"class.cmsys::CommandLineArgumentsMapOfStrucs", ptr, ptr, i64, %"class.cmsys::CommandLineArgumentsVectorOfStrings" }
%"class.cmsys::CommandLineArgumentsMapOfStrucs" = type { %"class.std::map" }
%"class.std::map" = type { %"class.std::_Rb_tree" }
%"class.std::_Rb_tree" = type { %"struct.std::_Rb_tree<std::__cxx11::basic_string<char>, std::pair<const std::__cxx11::basic_string<char>, cmsys::CommandLineArgumentsCallbackStructure>, std::_Select1st<std::pair<const std::__cxx11::basic_string<char>, cmsys::CommandLineArgumentsCallbackStructure>>, std::less<std::__cxx11::basic_string<char>>>::_Rb_tree_impl" }
%"struct.std::_Rb_tree<std::__cxx11::basic_string<char>, std::pair<const std::__cxx11::basic_string<char>, cmsys::CommandLineArgumentsCallbackStructure>, std::_Select1st<std::pair<const std::__cxx11::basic_string<char>, cmsys::CommandLineArgumentsCallbackStructure>>, std::less<std::__cxx11::basic_string<char>>>::_Rb_tree_impl" = type { [8 x i8], %"struct.std::_Rb_tree_header" }
%"struct.std::_Rb_tree_header" = type { %"struct.std::_Rb_tree_node_base", i64 }
%"struct.std::_Rb_tree_node_base" = type { i32, ptr, ptr, ptr }
%"class.cmsys::CommandLineArgumentsVectorOfStrings" = type { %"class.std::vector" }
%"class.std::vector" = type { %"struct.std::_Vector_base" }
%"struct.std::_Vector_base" = type { %"struct.std::_Vector_base<std::__cxx11::basic_string<char>, std::allocator<std::__cxx11::basic_string<char>>>::_Vector_impl" }
%"struct.std::_Vector_base<std::__cxx11::basic_string<char>, std::allocator<std::__cxx11::basic_string<char>>>::_Vector_impl" = type { %"struct.std::_Vector_base<std::__cxx11::basic_string<char>, std::allocator<std::__cxx11::basic_string<char>>>::_Vector_impl_data" }
%"struct.std::_Vector_base<std::__cxx11::basic_string<char>, std::allocator<std::__cxx11::basic_string<char>>>::_Vector_impl_data" = type { ptr, ptr, ptr }

; Function Attrs: noinline noreturn nounwind uwtable
define linkonce_odr hidden void @__clang_call_terminate(ptr noundef %0) #15 comdat {
  %2 = call ptr @__cxa_begin_catch(ptr %0) #3
  call void @_ZSt9terminatev() #21
  unreachable
}

; Function Attrs: mustprogress nounwind uwtable
define available_externally noundef ptr @_ZNKSt7__cxx1112basic_stringIcSt11char_traitsIcESaIcEE7_M_dataEv(ptr noundef nonnull align 8 dereferenceable(32) %0) #5 align 2 {
  %2 = alloca ptr, align 8
  store ptr %0, ptr %2, align 8, !tbaa !20
  %3 = load ptr, ptr %2, align 8
  %4 = getelementptr inbounds nuw %"class.std::__cxx11::basic_string", ptr %3, i32 0, i32 0
  %5 = getelementptr inbounds nuw %"struct.std::__cxx11::basic_string<char>::_Alloc_hider", ptr %4, i32 0, i32 0
  %6 = load ptr, ptr %5, align 8, !tbaa !213
  ret ptr %6
}

; Function Attrs: mustprogress nounwind uwtable
define linkonce_odr dso_local noundef nonnull align 8 dereferenceable(32) ptr @_ZNSt6vectorINSt7__cxx1112basic_stringIcSt11char_traitsIcESaIcEEESaIS5_EEixEm(ptr noundef nonnull align 8 dereferenceable(24) %0, i64 noundef %1) #5 comdat align 2 {
  %3 = alloca ptr, align 8
  %4 = alloca i64, align 8
  store ptr %0, ptr %3, align 8, !tbaa !48
  store i64 %1, ptr %4, align 8, !tbaa !68
  %5 = load ptr, ptr %3, align 8
  %6 = getelementptr inbounds nuw %"struct.std::_Vector_base", ptr %5, i32 0, i32 0
  %7 = getelementptr inbounds nuw %"struct.std::_Vector_base<std::__cxx11::basic_string<char>, std::allocator<std::__cxx11::basic_string<char>>>::_Vector_impl_data", ptr %6, i32 0, i32 0
  %8 = load ptr, ptr %7, align 8, !tbaa !50
  %9 = load i64, ptr %4, align 8, !tbaa !68
  %10 = getelementptr inbounds nuw %"class.std::__cxx11::basic_string", ptr %8, i64 %9
  ret ptr %10
}

; Function Attrs: mustprogress nounwind uwtable
define available_externally noundef ptr @_ZNKSt7__cxx1112basic_stringIcSt11char_traitsIcESaIcEE5c_strEv(ptr noundef nonnull align 8 dereferenceable(32) %0) #5 align 2 personality ptr @__gxx_personality_v0 {
  %2 = alloca ptr, align 8
  store ptr %0, ptr %2, align 8, !tbaa !20
  %3 = load ptr, ptr %2, align 8
  %4 = invoke noundef ptr @_ZNKSt7__cxx1112basic_stringIcSt11char_traitsIcESaIcEE7_M_dataEv(ptr noundef nonnull align 8 dereferenceable(32) %3)
          to label %5 unwind label %6

5:                                                ; preds = %1
  ret ptr %4

6:                                                ; preds = %1
  %7 = landingpad { ptr, i32 }
          catch ptr null
  %8 = extractvalue { ptr, i32 } %7, 0
  call void @__clang_call_terminate(ptr %8) #21
  unreachable
}

; Function Attrs: mustprogress nounwind uwtable
define available_externally noundef i64 @_ZNKSt7__cxx1112basic_stringIcSt11char_traitsIcESaIcEE4sizeEv(ptr noundef nonnull align 8 dereferenceable(32) %0) #5 align 2 {
  %2 = alloca ptr, align 8
  store ptr %0, ptr %2, align 8, !tbaa !20
  %3 = load ptr, ptr %2, align 8
  %4 = getelementptr inbounds nuw %"class.std::__cxx11::basic_string", ptr %3, i32 0, i32 1
  %5 = load i64, ptr %4, align 8, !tbaa !76
  ret i64 %5
}

; Function Attrs: mustprogress nounwind uwtable
define linkonce_odr dso_local noundef i64 @_ZNKSt6vectorINSt7__cxx1112basic_stringIcSt11char_traitsIcESaIcEEESaIS5_EE4sizeEv(ptr noundef nonnull align 8 dereferenceable(24) %0) #5 comdat align 2 {
  %2 = alloca ptr, align 8
  store ptr %0, ptr %2, align 8, !tbaa !48
  %3 = load ptr, ptr %2, align 8
  %4 = getelementptr inbounds nuw %"struct.std::_Vector_base", ptr %3, i32 0, i32 0
  %5 = getelementptr inbounds nuw %"struct.std::_Vector_base<std::__cxx11::basic_string<char>, std::allocator<std::__cxx11::basic_string<char>>>::_Vector_impl_data", ptr %4, i32 0, i32 1
  %6 = load ptr, ptr %5, align 8, !tbaa !66
  %7 = getelementptr inbounds nuw %"struct.std::_Vector_base", ptr %3, i32 0, i32 0
  %8 = getelementptr inbounds nuw %"struct.std::_Vector_base<std::__cxx11::basic_string<char>, std::allocator<std::__cxx11::basic_string<char>>>::_Vector_impl_data", ptr %7, i32 0, i32 0
  %9 = load ptr, ptr %8, align 8, !tbaa !50
  %10 = ptrtoint ptr %6 to i64
  %11 = ptrtoint ptr %9 to i64
  %12 = sub i64 %10, %11
  %13 = sdiv exact i64 %12, 32
  ret i64 %13
}

; Function Attrs: mustprogress uwtable
define dso_local void @_ZN5cmsys20CommandLineArguments21GetRemainingArgumentsEPiPPPc(ptr noundef nonnull align 8 dereferenceable(45) %0, ptr noundef %1, ptr noundef %2) #4 align 2 {
  %4 = alloca ptr, align 8
  %5 = alloca ptr, align 8
  %6 = alloca ptr, align 8
  %7 = alloca i64, align 8
  %8 = alloca i64, align 8
  %9 = alloca ptr, align 8
  %10 = alloca i32, align 4
  store ptr %0, ptr %4, align 8, !tbaa !4
  store ptr %1, ptr %5, align 8, !tbaa !86
  store ptr %2, ptr %6, align 8, !tbaa !88
  %11 = load ptr, ptr %4, align 8
  call void @llvm.lifetime.start.p0(i64 8, ptr %7) #3
  %12 = getelementptr inbounds nuw %"class.cmsys::CommandLineArguments", ptr %11, i32 0, i32 0
  %13 = load ptr, ptr %12, align 8, !tbaa !9
  %14 = getelementptr inbounds nuw %"class.cmsys::CommandLineArgumentsInternal", ptr %13, i32 0, i32 0
  %15 = call noundef i64 @_ZNKSt6vectorINSt7__cxx1112basic_stringIcSt11char_traitsIcESaIcEEESaIS5_EE4sizeEv(ptr noundef nonnull align 8 dereferenceable(24) %14) #3
  %16 = getelementptr inbounds nuw %"class.cmsys::CommandLineArguments", ptr %11, i32 0, i32 0
  %17 = load ptr, ptr %16, align 8, !tbaa !9
  %18 = getelementptr inbounds nuw %"class.cmsys::CommandLineArgumentsInternal", ptr %17, i32 0, i32 5
  %19 = load i64, ptr %18, align 8, !tbaa !41
  %20 = sub i64 %15, %19
  %21 = add i64 %20, 1
  store i64 %21, ptr %7, align 8, !tbaa !68
  call void @llvm.lifetime.start.p0(i64 8, ptr %8) #3
  call void @llvm.lifetime.start.p0(i64 8, ptr %9) #3
  %22 = load i64, ptr %7, align 8, !tbaa !68
  %23 = call { i64, i1 } @llvm.umul.with.overflow.i64(i64 %22, i64 8)
  %24 = extractvalue { i64, i1 } %23, 1
  %25 = extractvalue { i64, i1 } %23, 0
  %26 = select i1 %24, i64 -1, i64 %25
  %27 = call noalias noundef nonnull ptr @_Znam(i64 noundef %26) #20
  store ptr %27, ptr %9, align 8, !tbaa !44
  %28 = getelementptr inbounds nuw %"class.cmsys::CommandLineArguments", ptr %11, i32 0, i32 0
  %29 = load ptr, ptr %28, align 8, !tbaa !9
  %30 = getelementptr inbounds nuw %"class.cmsys::CommandLineArgumentsInternal", ptr %29, i32 0, i32 1
  %31 = call noundef i64 @_ZNKSt7__cxx1112basic_stringIcSt11char_traitsIcESaIcEE4sizeEv(ptr noundef nonnull align 8 dereferenceable(32) %30) #3
  %32 = add i64 %31, 1
  %33 = call noalias noundef nonnull ptr @_Znam(i64 noundef %32) #20
  %34 = load ptr, ptr %9, align 8, !tbaa !44
  %35 = getelementptr inbounds ptr, ptr %34, i64 0
  store ptr %33, ptr %35, align 8, !tbaa !42
  %36 = load ptr, ptr %9, align 8, !tbaa !44
  %37 = getelementptr inbounds ptr, ptr %36, i64 0
  %38 = load ptr, ptr %37, align 8, !tbaa !42
  %39 = getelementptr inbounds nuw %"class.cmsys::CommandLineArguments", ptr %11, i32 0, i32 0
  %40 = load ptr, ptr %39, align 8, !tbaa !9
  %41 = getelementptr inbounds nuw %"class.cmsys::CommandLineArgumentsInternal", ptr %40, i32 0, i32 1
  %42 = call noundef ptr @_ZNKSt7__cxx1112basic_stringIcSt11char_traitsIcESaIcEE5c_strEv(ptr noundef nonnull align 8 dereferenceable(32) %41) #3
  %43 = call ptr @strcpy(ptr noundef %38, ptr noundef %42) #3
  call void @llvm.lifetime.start.p0(i64 4, ptr %10) #3
  store i32 1, ptr %10, align 4, !tbaa !43
  %44 = getelementptr inbounds nuw %"class.cmsys::CommandLineArguments", ptr %11, i32 0, i32 0
  %45 = load ptr, ptr %44, align 8, !tbaa !9
  %46 = getelementptr inbounds nuw %"class.cmsys::CommandLineArgumentsInternal", ptr %45, i32 0, i32 5
  %47 = load i64, ptr %46, align 8, !tbaa !41
  %48 = add i64 %47, 1
  store i64 %48, ptr %8, align 8, !tbaa !68
  br label %49

49:                                               ; preds = %83, %3
  %50 = load i64, ptr %8, align 8, !tbaa !68
  %51 = getelementptr inbounds nuw %"class.cmsys::CommandLineArguments", ptr %11, i32 0, i32 0
  %52 = load ptr, ptr %51, align 8, !tbaa !9
  %53 = getelementptr inbounds nuw %"class.cmsys::CommandLineArgumentsInternal", ptr %52, i32 0, i32 0
  %54 = call noundef i64 @_ZNKSt6vectorINSt7__cxx1112basic_stringIcSt11char_traitsIcESaIcEEESaIS5_EE4sizeEv(ptr noundef nonnull align 8 dereferenceable(24) %53) #3
  %55 = icmp ult i64 %50, %54
  br i1 %55, label %56, label %86

56:                                               ; preds = %49
  %57 = getelementptr inbounds nuw %"class.cmsys::CommandLineArguments", ptr %11, i32 0, i32 0
  %58 = load ptr, ptr %57, align 8, !tbaa !9
  %59 = getelementptr inbounds nuw %"class.cmsys::CommandLineArgumentsInternal", ptr %58, i32 0, i32 0
  %60 = load i64, ptr %8, align 8, !tbaa !68
  %61 = call noundef nonnull align 8 dereferenceable(32) ptr @_ZNSt6vectorINSt7__cxx1112basic_stringIcSt11char_traitsIcESaIcEEESaIS5_EEixEm(ptr noundef nonnull align 8 dereferenceable(24) %59, i64 noundef %60) #3
  %62 = call noundef i64 @_ZNKSt7__cxx1112basic_stringIcSt11char_traitsIcESaIcEE4sizeEv(ptr noundef nonnull align 8 dereferenceable(32) %61) #3
  %63 = add i64 %62, 1
  %64 = call noalias noundef nonnull ptr @_Znam(i64 noundef %63) #20
  %65 = load ptr, ptr %9, align 8, !tbaa !44
  %66 = load i32, ptr %10, align 4, !tbaa !43
  %67 = sext i32 %66 to i64
  %68 = getelementptr inbounds ptr, ptr %65, i64 %67
  store ptr %64, ptr %68, align 8, !tbaa !42
  %69 = load ptr, ptr %9, align 8, !tbaa !44
  %70 = load i32, ptr %10, align 4, !tbaa !43
  %71 = sext i32 %70 to i64
  %72 = getelementptr inbounds ptr, ptr %69, i64 %71
  %73 = load ptr, ptr %72, align 8, !tbaa !42
  %74 = getelementptr inbounds nuw %"class.cmsys::CommandLineArguments", ptr %11, i32 0, i32 0
  %75 = load ptr, ptr %74, align 8, !tbaa !9
  %76 = getelementptr inbounds nuw %"class.cmsys::CommandLineArgumentsInternal", ptr %75, i32 0, i32 0
  %77 = load i64, ptr %8, align 8, !tbaa !68
  %78 = call noundef nonnull align 8 dereferenceable(32) ptr @_ZNSt6vectorINSt7__cxx1112basic_stringIcSt11char_traitsIcESaIcEEESaIS5_EEixEm(ptr noundef nonnull align 8 dereferenceable(24) %76, i64 noundef %77) #3
  %79 = call noundef ptr @_ZNKSt7__cxx1112basic_stringIcSt11char_traitsIcESaIcEE5c_strEv(ptr noundef nonnull align 8 dereferenceable(32) %78) #3
  %80 = call ptr @strcpy(ptr noundef %73, ptr noundef %79) #3
  %81 = load i32, ptr %10, align 4, !tbaa !43
  %82 = add nsw i32 %81, 1
  store i32 %82, ptr %10, align 4, !tbaa !43
  br label %83

83:                                               ; preds = %56
  %84 = load i64, ptr %8, align 8, !tbaa !68
  %85 = add i64 %84, 1
  store i64 %85, ptr %8, align 8, !tbaa !68
  br label %49, !llvm.loop !90

86:                                               ; preds = %49
  %87 = load i32, ptr %10, align 4, !tbaa !43
  %88 = load ptr, ptr %5, align 8, !tbaa !86
  store i32 %87, ptr %88, align 4, !tbaa !43
  %89 = load ptr, ptr %9, align 8, !tbaa !44
  %90 = load ptr, ptr %6, align 8, !tbaa !88
  store ptr %89, ptr %90, align 8, !tbaa !44
  call void @llvm.lifetime.end.p0(i64 4, ptr %10) #3
  call void @llvm.lifetime.end.p0(i64 8, ptr %9) #3
  call void @llvm.lifetime.end.p0(i64 8, ptr %8) #3
  call void @llvm.lifetime.end.p0(i64 8, ptr %7) #3
  ret void
}