; Function Attrs: mustprogress uwtable
define dso_local void @_ZN5cmsys20CommandLineArguments21GetRemainingArgumentsEPiPPPc(ptr noundef nonnull readonly align 8 captures(none) dereferenceable(45) %0, ptr noundef writeonly captures(none) %1, ptr noundef writeonly captures(none) %2) local_unnamed_addr #3 align 2 personality ptr @__gxx_personality_v0 {
  %4 = load ptr, ptr %0, align 8, !tbaa !22
  %5 = getelementptr inbounds nuw i8, ptr %4, i64 8
  %6 = load ptr, ptr %5, align 8, !tbaa !33
  %7 = load ptr, ptr %4, align 8, !tbaa !30
  %8 = ptrtoint ptr %6 to i64
  %9 = ptrtoint ptr %7 to i64
  %10 = sub i64 %8, %9
  %11 = ashr exact i64 %10, 5
  %12 = getelementptr inbounds nuw i8, ptr %4, i64 120
  %13 = load i64, ptr %12, align 8, !tbaa !37
  %14 = sub i64 %11, %13
  %15 = add i64 %14, 1
  %16 = icmp ugt i64 %15, 2305843009213693951
  %17 = shl i64 %15, 3
  %18 = select i1 %16, i64 -1, i64 %17
  %19 = tail call noalias noundef nonnull ptr @_Znam(i64 noundef %18) #27
  %20 = getelementptr inbounds nuw i8, ptr %4, i64 24
  %21 = getelementptr inbounds nuw i8, ptr %4, i64 32
  %22 = load i64, ptr %21, align 8, !tbaa !10
  %23 = add i64 %22, 1
  %24 = tail call noalias noundef nonnull ptr @_Znam(i64 noundef %23) #27
  store ptr %24, ptr %19, align 8, !tbaa !49
  %25 = load ptr, ptr %20, align 8, !tbaa !29
  %26 = tail call ptr @strcpy(ptr noundef nonnull dereferenceable(1) %24, ptr noundef nonnull dereferenceable(1) %25) #29
  %.01617 = add i64 %13, 1
  %27 = icmp ult i64 %.01617, %11
  br i1 %27, label %.lr.ph, label %._crit_edge

.lr.ph:                                           ; preds = %3, %.lr.ph
  %indvars.iv = phi i64 [ %indvars.iv.next, %.lr.ph ], [ 1, %3 ]
  %.01619 = phi i64 [ %.016, %.lr.ph ], [ %.01617, %3 ]
  %28 = getelementptr inbounds nuw %"class.std::__cxx11::basic_string", ptr %7, i64 %.01619, i32 1
  %29 = load i64, ptr %28, align 8, !tbaa !10
  %30 = add i64 %29, 1
  %31 = tail call noalias noundef nonnull ptr @_Znam(i64 noundef %30) #27
  %32 = getelementptr inbounds nuw ptr, ptr %19, i64 %indvars.iv
  store ptr %31, ptr %32, align 8, !tbaa !49
  %33 = getelementptr inbounds nuw %"class.std::__cxx11::basic_string", ptr %7, i64 %.01619
  %34 = load ptr, ptr %33, align 8, !tbaa !29
  %35 = tail call ptr @strcpy(ptr noundef nonnull dereferenceable(1) %31, ptr noundef nonnull dereferenceable(1) %34) #29
  %indvars.iv.next = add nuw nsw i64 %indvars.iv, 1
  %.016 = add nuw i64 %.01619, 1
  %36 = icmp ult i64 %.016, %11
  br i1 %36, label %.lr.ph, label %._crit_edge.loopexit, !llvm.loop !100

._crit_edge.loopexit:                             ; preds = %.lr.ph
  %37 = trunc nuw i64 %indvars.iv.next to i32
  br label %._crit_edge

._crit_edge:                                      ; preds = %._crit_edge.loopexit, %3
  %.0.lcssa = phi i32 [ 1, %3 ], [ %37, %._crit_edge.loopexit ]
  store i32 %.0.lcssa, ptr %1, align 4, !tbaa !92
  store ptr %19, ptr %2, align 8, !tbaa !101
  ret void
}